target datalayout = "e-m:e-p270:32:32-p271:32:32-p272:64:64-i64:64-i128:128-f80:128-n8:16:32:64-S128"
target triple = "x86_64-pc-linux-gnu"

%struct._zend_ptr_stack = type { i32, i32, ptr, ptr, i8 }

; Function Attrs: nounwind uwtable
define void @zend_ptr_stack_apply(ptr noundef %0, ptr noundef %1) #0 {
  %3 = alloca ptr, align 8
  %4 = alloca ptr, align 8
  %5 = alloca i32, align 4
  store ptr %0, ptr %3, align 8
  store ptr %1, ptr %4, align 8
  %6 = load ptr, ptr %3, align 8
  %7 = getelementptr inbounds %struct._zend_ptr_stack, ptr %6, i32 0, i32 0
  %8 = load i32, ptr %7, align 8
  store i32 %8, ptr %5, align 4
  br label %9

9:                                                ; preds = %13, %2
  %10 = load i32, ptr %5, align 4
  %11 = add nsw i32 %10, -1
  store i32 %11, ptr %5, align 4
  %12 = icmp sge i32 %11, 0
  br i1 %12, label %13, label %22

13:                                               ; preds = %9
  %14 = load ptr, ptr %4, align 8
  %15 = load ptr, ptr %3, align 8
  %16 = getelementptr inbounds %struct._zend_ptr_stack, ptr %15, i32 0, i32 2
  %17 = load ptr, ptr %16, align 8
  %18 = load i32, ptr %5, align 4
  %19 = sext i32 %18 to i64
  %20 = getelementptr inbounds ptr, ptr %17, i64 %19
  %21 = load ptr, ptr %20, align 8
  call void %14(ptr noundef %21)
  br label %9

22:                                               ; preds = %9
  ret void
}

; Function Attrs: nounwind uwtable
define void @zend_ptr_stack_clean(ptr noundef %0, ptr noundef %1, i1 noundef zeroext %2) #0 {
  %4 = alloca ptr, align 8
  %5 = alloca ptr, align 8
  %6 = alloca i8, align 1
  %7 = alloca i32, align 4
  store ptr %0, ptr %4, align 8
  store ptr %1, ptr %5, align 8
  %8 = zext i1 %2 to i8
  store i8 %8, ptr %6, align 1
  %9 = load ptr, ptr %4, align 8
  %10 = load ptr, ptr %5, align 8
  call void @zend_ptr_stack_apply(ptr noundef %9, ptr noundef %10)
  %11 = load i8, ptr %6, align 1
  %12 = trunc i8 %11 to i1
  br i1 %12, label %13, label %44

13:                                               ; preds = %3
  %14 = load ptr, ptr %4, align 8
  %15 = getelementptr inbounds %struct._zend_ptr_stack, ptr %14, i32 0, i32 0
  %16 = load i32, ptr %15, align 8
  store i32 %16, ptr %7, align 4
  br label %17

17:                                               ; preds = %42, %13
  %18 = load i32, ptr %7, align 4
  %19 = add nsw i32 %18, -1
  store i32 %19, ptr %7, align 4
  %20 = icmp sge i32 %19, 0
  br i1 %20, label %21, label %43

21:                                               ; preds = %17
  %22 = load ptr, ptr %4, align 8
  %23 = getelementptr inbounds %struct._zend_ptr_stack, ptr %22, i32 0, i32 4
  %24 = load i8, ptr %23, align 8
  %25 = trunc i8 %24 to i1
  br i1 %25, label %26, label %34

26:                                               ; preds = %21
  %27 = load ptr, ptr %4, align 8
  %28 = getelementptr inbounds %struct._zend_ptr_stack, ptr %27, i32 0, i32 2
  %29 = load ptr, ptr %28, align 8
  %30 = load i32, ptr %7, align 4
  %31 = sext i32 %30 to i64
  %32 = getelementptr inbounds ptr, ptr %29, i64 %31
  %33 = load ptr, ptr %32, align 8
  call void @free(ptr noundef %33) #4
  br label %42

34:                                               ; preds = %21
  %35 = load ptr, ptr %4, align 8
  %36 = getelementptr inbounds %struct._zend_ptr_stack, ptr %35, i32 0, i32 2
  %37 = load ptr, ptr %36, align 8
  %38 = load i32, ptr %7, align 4
  %39 = sext i32 %38 to i64
  %40 = getelementptr inbounds ptr, ptr %37, i64 %39
  %41 = load ptr, ptr %40, align 8
  call void @_efree(ptr noundef %41)
  br label %42

42:                                               ; preds = %34, %26
  br label %17

43:                                               ; preds = %17
  br label %44

44:                                               ; preds = %43, %3
  %45 = load ptr, ptr %4, align 8
  %46 = getelementptr inbounds %struct._zend_ptr_stack, ptr %45, i32 0, i32 0
  store i32 0, ptr %46, align 8
  %47 = load ptr, ptr %4, align 8
  %48 = getelementptr inbounds %struct._zend_ptr_stack, ptr %47, i32 0, i32 2
  %49 = load ptr, ptr %48, align 8
  %50 = load ptr, ptr %4, align 8
  %51 = getelementptr inbounds %struct._zend_ptr_stack, ptr %50, i32 0, i32 3
  store ptr %49, ptr %51, align 8
  ret void
}