; Function Attrs: nounwind uwtable
define void @zend_ptr_stack_clean(ptr nocapture noundef %0, ptr nocapture noundef readonly %1, i1 noundef zeroext %2) local_unnamed_addr #1 {
  %4 = load i32, ptr %0, align 8
  %5 = icmp sgt i32 %4, 0
  br i1 %5, label %.lr.ph.i, label %zend_ptr_stack_apply.exit

.lr.ph.i:                                         ; preds = %3
  %6 = getelementptr inbounds i8, ptr %0, i64 8
  %7 = zext nneg i32 %4 to i64
  br label %8

8:                                                ; preds = %8, %.lr.ph.i
  %indvars.iv.i = phi i64 [ %7, %.lr.ph.i ], [ %indvars.iv.next.i, %8 ]
  %indvars.iv.next.i = add nsw i64 %indvars.iv.i, -1
  %9 = load ptr, ptr %6, align 8
  %10 = getelementptr inbounds ptr, ptr %9, i64 %indvars.iv.next.i
  %11 = load ptr, ptr %10, align 8
  tail call void %1(ptr noundef %11) #9
  %12 = icmp ugt i64 %indvars.iv.i, 1
  br i1 %12, label %8, label %zend_ptr_stack_apply.exit

zend_ptr_stack_apply.exit:                        ; preds = %8, %3
  br i1 %2, label %13, label %.loopexit

13:                                               ; preds = %zend_ptr_stack_apply.exit
  %14 = load i32, ptr %0, align 8
  %15 = icmp sgt i32 %14, 0
  br i1 %15, label %.lr.ph, label %.loopexit

.lr.ph:                                           ; preds = %13
  %16 = getelementptr inbounds i8, ptr %0, i64 24
  %17 = getelementptr inbounds i8, ptr %0, i64 8
  %18 = zext nneg i32 %14 to i64
  br label %19

19:                                               ; preds = %.lr.ph, %27
  %indvars.iv = phi i64 [ %18, %.lr.ph ], [ %indvars.iv.next, %27 ]
  %indvars.iv.next = add nsw i64 %indvars.iv, -1
  %20 = load i8, ptr %16, align 8
  %21 = and i8 %20, 1
  %.not = icmp eq i8 %21, 0
  %22 = load ptr, ptr %17, align 8
  %23 = getelementptr inbounds ptr, ptr %22, i64 %indvars.iv.next
  %24 = load ptr, ptr %23, align 8
  br i1 %.not, label %26, label %25

25:                                               ; preds = %19
  tail call void @free(ptr noundef %24) #9
  br label %27

26:                                               ; preds = %19
  tail call void @_efree(ptr noundef %24) #9
  br label %27

27:                                               ; preds = %26, %25
  %28 = icmp ugt i64 %indvars.iv, 1
  br i1 %28, label %19, label %.loopexit

.loopexit:                                        ; preds = %27, %13, %zend_ptr_stack_apply.exit
  store i32 0, ptr %0, align 8
  %29 = getelementptr inbounds i8, ptr %0, i64 8
  %30 = load ptr, ptr %29, align 8
  %31 = getelementptr inbounds i8, ptr %0, i64 16
  store ptr %30, ptr %31, align 8
  ret void
}